target datalayout = "e-m:e-p270:32:32-p271:32:32-p272:64:64-i64:64-i128:128-f80:128-n8:16:32:64-S128"
target triple = "x86_64-pc-linux-gnu"

%struct.reftable_tmpfile = type { ptr, i32, ptr }

; Function Attrs: nounwind uwtable
define dso_local i32 @tmpfile_close(ptr noundef %0) #0 {
  %2 = alloca i32, align 4
  %3 = alloca ptr, align 8
  %4 = alloca ptr, align 8
  %5 = alloca i32, align 4
  %6 = alloca i32, align 4
  store ptr %0, ptr %3, align 8, !tbaa !4
  call void @llvm.lifetime.start.p0(i64 8, ptr %4) #7
  %7 = load ptr, ptr %3, align 8, !tbaa !4
  %8 = getelementptr inbounds nuw %struct.reftable_tmpfile, ptr %7, i32 0, i32 2
  %9 = load ptr, ptr %8, align 8, !tbaa !25
  store ptr %9, ptr %4, align 8, !tbaa !11
  call void @llvm.lifetime.start.p0(i64 4, ptr %5) #7
  %10 = load ptr, ptr %4, align 8, !tbaa !11
  %11 = call i32 @close_tempfile_gently(ptr noundef %10)
  store i32 %11, ptr %5, align 4, !tbaa !26
  %12 = load ptr, ptr %3, align 8, !tbaa !4
  %13 = getelementptr inbounds nuw %struct.reftable_tmpfile, ptr %12, i32 0, i32 1
  store i32 -1, ptr %13, align 8, !tbaa !24
  %14 = load i32, ptr %5, align 4, !tbaa !26
  %15 = icmp slt i32 %14, 0
  br i1 %15, label %16, label %17

16:                                               ; preds = %1
  store i32 -2, ptr %2, align 4
  store i32 1, ptr %6, align 4
  br label %18

17:                                               ; preds = %1
  store i32 0, ptr %2, align 4
  store i32 1, ptr %6, align 4
  br label %18

18:                                               ; preds = %17, %16
  call void @llvm.lifetime.end.p0(i64 4, ptr %5) #7
  call void @llvm.lifetime.end.p0(i64 8, ptr %4) #7
  %19 = load i32, ptr %2, align 4
  ret i32 %19
}