; Function Attrs: nounwind uwtable
define dso_local range(i32 -2, 1) i32 @tmpfile_close(ptr noundef captures(none) initializes((8, 12)) %0) local_unnamed_addr #0 {
  %2 = getelementptr inbounds nuw i8, ptr %0, i64 16
  %3 = load ptr, ptr %2, align 8, !tbaa !20
  %4 = tail call i32 @close_tempfile_gently(ptr noundef %3) #5
  %5 = getelementptr inbounds nuw i8, ptr %0, i64 8
  store i32 -1, ptr %5, align 8, !tbaa !19
  %6 = icmp slt i32 %4, 0
  %. = select i1 %6, i32 -2, i32 0
  ret i32 %.
}